target datalayout = "e-m:e-p270:32:32-p271:32:32-p272:64:64-i64:64-i128:128-f80:128-n8:16:32:64-S128"
target triple = "x86_64-pc-linux-gnu"

@__const._ZN12_GLOBAL__N_134gie_unitconvert_selftest_date_Test8TestBodyEv.args = private unnamed_addr constant [52 x i8] c"+proj=unitconvert +t_in=decimalyear +t_out=yyyymmdd\00", align 16
@.str.248 = private unnamed_addr constant [34 x i8] c"+t_in=yyyymmdd +t_out=decimalyear\00", align 1

; Function Attrs: mustprogress uwtable
define internal void @_ZN12_GLOBAL__N_134gie_unitconvert_selftest_date_Test8TestBodyEv(ptr noundef nonnull align 8 dereferenceable(16) %0) unnamed_addr #6 align 2 {
  %2 = alloca ptr, align 8
  %3 = alloca [52 x i8], align 16
  store ptr %0, ptr %2, align 8, !tbaa !316
  call void @llvm.lifetime.start.p0(i64 52, ptr %3) #3
  call void @llvm.memcpy.p0.p0.i64(ptr align 16 %3, ptr align 16 @__const._ZN12_GLOBAL__N_134gie_unitconvert_selftest_date_Test8TestBodyEv.args, i64 52, i1 false)
  %4 = getelementptr inbounds [52 x i8], ptr %3, i64 0, i64 0
  call void @_ZN12_GLOBAL__N_19test_dateEPKcddd(ptr noundef %4, double noundef 0x3EB0C6F7A0B5ED8D, double noundef 0x409F9802C3C9EECC, double noundef 0x4173488C60000000)
  %5 = getelementptr inbounds [52 x i8], ptr %3, i64 0, i64 0
  call void @_ZN12_GLOBAL__N_19test_dateEPKcddd(ptr noundef %5, double noundef 0x3EB0C6F7A0B5ED8D, double noundef 1.990000e+03, double noundef 0x4172FA6C50000000)
  %6 = getelementptr inbounds [52 x i8], ptr %3, i64 0, i64 0
  call void @_ZN12_GLOBAL__N_19test_dateEPKcddd(ptr noundef %6, double noundef 0x3EB0C6F7A0B5ED8D, double noundef 0x409F50A5119CE076, double noundef 0x41731CA250000000)
  %7 = getelementptr inbounds [52 x i8], ptr %3, i64 0, i64 0
  call void @_ZN12_GLOBAL__N_19test_dateEPKcddd(ptr noundef %7, double noundef 0x3EB0C6F7A0B5ED8D, double noundef 0x409DAFFEF9DB22D1, double noundef 0x41721EB250000000)
  %8 = getelementptr inbounds [52 x i8], ptr %3, i64 0, i64 18
  %9 = call ptr @strcpy(ptr noundef %8, ptr noundef @.str.248) #3
  %10 = getelementptr inbounds [52 x i8], ptr %3, i64 0, i64 0
  call void @_ZN12_GLOBAL__N_19test_dateEPKcddd(ptr noundef %10, double noundef 0x3EB0C6F7A0B5ED8D, double noundef 0x4173488C60000000, double noundef 0x409F9802CE32279A)
  %11 = getelementptr inbounds [52 x i8], ptr %3, i64 0, i64 0
  call void @_ZN12_GLOBAL__N_19test_dateEPKcddd(ptr noundef %11, double noundef 0x3EB0C6F7A0B5ED8D, double noundef 0x4172FA6C50000000, double noundef 1.990000e+03)
  %12 = getelementptr inbounds [52 x i8], ptr %3, i64 0, i64 0
  call void @_ZN12_GLOBAL__N_19test_dateEPKcddd(ptr noundef %12, double noundef 0x3EB0C6F7A0B5ED8D, double noundef 0x41731CA250000000, double noundef 0x409F50A51230842C)
  %13 = getelementptr inbounds [52 x i8], ptr %3, i64 0, i64 0
  call void @_ZN12_GLOBAL__N_19test_dateEPKcddd(ptr noundef %13, double noundef 0x3EB0C6F7A0B5ED8D, double noundef 0x41721C87F0000000, double noundef 0x409DAFFD31CDD866)
  call void @llvm.lifetime.end.p0(i64 52, ptr %3) #3
  ret void
}