; Function Attrs: mustprogress uwtable
define internal void @_ZN12_GLOBAL__N_134gie_unitconvert_selftest_date_Test8TestBodyEv(ptr nonnull readnone align 8 captures(none) %0) unnamed_addr #4 align 2 {
  %2 = alloca [52 x i8], align 16
  call void @llvm.lifetime.start.p0(i64 52, ptr nonnull %2) #22
  call void @llvm.memcpy.p0.p0.i64(ptr noundef nonnull align 16 dereferenceable(52) %2, ptr noundef nonnull align 16 dereferenceable(52) @__const._ZN12_GLOBAL__N_134gie_unitconvert_selftest_date_Test8TestBodyEv.args, i64 52, i1 false)
  call fastcc void @_ZN12_GLOBAL__N_19test_dateEPKcddd(ptr noundef %2, double noundef 0x409F9802C3C9EECC, double noundef 0x4173488C60000000)
  call fastcc void @_ZN12_GLOBAL__N_19test_dateEPKcddd(ptr noundef %2, double noundef 1.990000e+03, double noundef 0x4172FA6C50000000)
  call fastcc void @_ZN12_GLOBAL__N_19test_dateEPKcddd(ptr noundef %2, double noundef 0x409F50A5119CE076, double noundef 0x41731CA250000000)
  call fastcc void @_ZN12_GLOBAL__N_19test_dateEPKcddd(ptr noundef %2, double noundef 0x409DAFFEF9DB22D1, double noundef 0x41721EB250000000)
  %3 = getelementptr inbounds nuw i8, ptr %2, i64 18
  call void @llvm.memcpy.p0.p0.i64(ptr noundef nonnull align 2 dereferenceable(34) %3, ptr noundef nonnull align 1 dereferenceable(34) @.str.248, i64 34, i1 false) #22
  call fastcc void @_ZN12_GLOBAL__N_19test_dateEPKcddd(ptr noundef %2, double noundef 0x4173488C60000000, double noundef 0x409F9802CE32279A)
  call fastcc void @_ZN12_GLOBAL__N_19test_dateEPKcddd(ptr noundef %2, double noundef 0x4172FA6C50000000, double noundef 1.990000e+03)
  call fastcc void @_ZN12_GLOBAL__N_19test_dateEPKcddd(ptr noundef %2, double noundef 0x41731CA250000000, double noundef 0x409F50A51230842C)
  call fastcc void @_ZN12_GLOBAL__N_19test_dateEPKcddd(ptr noundef %2, double noundef 0x41721C87F0000000, double noundef 0x409DAFFD31CDD866)
  call void @llvm.lifetime.end.p0(i64 52, ptr nonnull %2) #22
  ret void
}